target datalayout = "e-m:e-p270:32:32-p271:32:32-p272:64:64-i64:64-i128:128-f80:128-n8:16:32:64-S128"
target triple = "x86_64-pc-linux-gnu"

; Function Attrs: mustprogress uwtable
define noundef ptr @_ZN3net15QuicSpdySession17GetSpdyDataStreamEj(ptr noundef nonnull align 8 dereferenceable(2057) %0, i32 noundef %1) #0 align 2 {
  %3 = alloca ptr, align 8
  %4 = alloca i32, align 4
  store ptr %0, ptr %3, align 8, !tbaa !3
  store i32 %1, ptr %4, align 4, !tbaa !115
  %5 = load ptr, ptr %3, align 8
  %6 = load i32, ptr %4, align 4, !tbaa !115
  %7 = call noundef ptr @_ZN3net11QuicSession24GetOrCreateDynamicStreamEj(ptr noundef nonnull align 8 dereferenceable(2044) %5, i32 noundef %6)
  ret ptr %7
}

; Function Attrs: mustprogress uwtable
define void @_ZN3net15QuicSpdySession23OnStreamHeadersPriorityEjh(ptr noundef nonnull align 8 dereferenceable(2057) %0, i32 noundef %1, i8 noundef zeroext %2) unnamed_addr #0 align 2 {
  %4 = alloca ptr, align 8
  %5 = alloca i32, align 4
  %6 = alloca i8, align 1
  %7 = alloca ptr, align 8
  %8 = alloca i32, align 4
  store ptr %0, ptr %4, align 8, !tbaa !3
  store i32 %1, ptr %5, align 4, !tbaa !115
  store i8 %2, ptr %6, align 1, !tbaa !137
  %9 = load ptr, ptr %4, align 8
  call void @llvm.lifetime.start.p0(i64 8, ptr %7) #16
  %10 = load i32, ptr %5, align 4, !tbaa !115
  %11 = call noundef ptr @_ZN3net15QuicSpdySession17GetSpdyDataStreamEj(ptr noundef nonnull align 8 dereferenceable(2057) %9, i32 noundef %10)
  store ptr %11, ptr %7, align 8, !tbaa !132
  %12 = load ptr, ptr %7, align 8, !tbaa !132
  %13 = icmp ne ptr %12, null
  br i1 %13, label %15, label %14

14:                                               ; preds = %3
  store i32 1, ptr %8, align 4
  br label %21

15:                                               ; preds = %3
  %16 = load ptr, ptr %7, align 8, !tbaa !132
  %17 = load i8, ptr %6, align 1, !tbaa !137
  %18 = load ptr, ptr %16, align 8, !tbaa !12
  %19 = getelementptr inbounds ptr, ptr %18, i64 16
  %20 = load ptr, ptr %19, align 8
  call void %20(ptr noundef nonnull align 8 dereferenceable(664) %16, i8 noundef zeroext %17)
  store i32 0, ptr %8, align 4
  br label %21

21:                                               ; preds = %15, %14
  call void @llvm.lifetime.end.p0(i64 8, ptr %7) #16
  %22 = load i32, ptr %8, align 4
  switch i32 %22, label %24 [
    i32 0, label %23
    i32 1, label %23
  ]

23:                                               ; preds = %21, %21
  ret void

24:                                               ; preds = %21
  unreachable
}