; Function Attrs: mustprogress uwtable
define void @_ZN3net15QuicSpdySession23OnStreamHeadersPriorityEjh(ptr noundef nonnull align 8 dereferenceable(2057) %0, i32 noundef %1, i8 noundef zeroext %2) unnamed_addr #0 align 2 {
  %4 = tail call noundef ptr @_ZN3net11QuicSession24GetOrCreateDynamicStreamEj(ptr noundef nonnull align 8 dereferenceable(2057) %0, i32 noundef %1)
  %.not = icmp eq ptr %4, null
  br i1 %.not, label %9, label %5

5:                                                ; preds = %3
  %6 = load ptr, ptr %4, align 8, !tbaa !3
  %7 = getelementptr inbounds nuw i8, ptr %6, i64 128
  %8 = load ptr, ptr %7, align 8
  tail call void %8(ptr noundef nonnull align 8 dereferenceable(664) %4, i8 noundef zeroext %2)
  br label %9

9:                                                ; preds = %3, %5
  ret void
}